target datalayout = "e-m:e-p270:32:32-p271:32:32-p272:64:64-i64:64-i128:128-f80:128-n8:16:32:64-S128"
target triple = "x86_64-pc-linux-gnu"

%struct.slurm_step_layout = type { ptr, i32, ptr, ptr, ptr, i32, ptr, i16, i16, ptr, i32, i32, ptr }

@.str = private unnamed_addr constant [20 x i8] c"slurm_step_layout.c\00", align 1
@__func__.slurm_step_layout_merge = private unnamed_addr constant [24 x i8] c"slurm_step_layout_merge\00", align 1

; Function Attrs: nounwind uwtable
define dso_local void @slurm_step_layout_merge(ptr noundef %0, ptr noundef %1) #0 {
  %3 = alloca ptr, align 8
  %4 = alloca ptr, align 8
  %5 = alloca ptr, align 8
  %6 = alloca ptr, align 8
  %7 = alloca ptr, align 8
  %8 = alloca i32, align 4
  %9 = alloca i32, align 4
  %10 = alloca ptr, align 8
  %11 = alloca i32, align 4
  %12 = alloca i32, align 4
  store ptr %0, ptr %3, align 8
  store ptr %1, ptr %4, align 8
  call void @llvm.lifetime.start.p0(i64 8, ptr %5) #7
  call void @llvm.lifetime.start.p0(i64 8, ptr %6) #7
  call void @llvm.lifetime.start.p0(i64 8, ptr %7) #7
  call void @llvm.lifetime.start.p0(i64 4, ptr %8) #7
  store i32 0, ptr %8, align 4
  call void @llvm.lifetime.start.p0(i64 4, ptr %9) #7
  call void @llvm.lifetime.start.p0(i64 8, ptr %10) #7
  %13 = load ptr, ptr %3, align 8
  %14 = getelementptr inbounds nuw %struct.slurm_step_layout, ptr %13, i32 0, i32 6
  %15 = load ptr, ptr %14, align 8
  %16 = call ptr @hostlist_create(ptr noundef %15)
  store ptr %16, ptr %5, align 8
  %17 = load ptr, ptr %4, align 8
  %18 = getelementptr inbounds nuw %struct.slurm_step_layout, ptr %17, i32 0, i32 6
  %19 = load ptr, ptr %18, align 8
  %20 = call ptr @hostlist_create(ptr noundef %19)
  store ptr %20, ptr %6, align 8
  %21 = load ptr, ptr %6, align 8
  %22 = call ptr @hostlist_iterator_create(ptr noundef %21)
  store ptr %22, ptr %7, align 8
  br label %23

23:                                               ; preds = %136, %2
  %24 = load ptr, ptr %7, align 8
  %25 = call ptr @hostlist_next(ptr noundef %24)
  store ptr %25, ptr %10, align 8
  %26 = icmp ne ptr %25, null
  br i1 %26, label %27, label %139

27:                                               ; preds = %23
  call void @llvm.lifetime.start.p0(i64 4, ptr %11) #7
  %28 = load ptr, ptr %5, align 8
  %29 = load ptr, ptr %10, align 8
  %30 = call i32 @hostlist_find(ptr noundef %28, ptr noundef %29)
  store i32 %30, ptr %11, align 4
  %31 = load i32, ptr %11, align 4
  %32 = icmp eq i32 %31, -1
  br i1 %32, label %33, label %55

33:                                               ; preds = %27
  %34 = load ptr, ptr %5, align 8
  %35 = load ptr, ptr %10, align 8
  %36 = call i32 @hostlist_push_host(ptr noundef %34, ptr noundef %35)
  %37 = load ptr, ptr %3, align 8
  %38 = getelementptr inbounds nuw %struct.slurm_step_layout, ptr %37, i32 0, i32 5
  %39 = load i32, ptr %38, align 8
  %40 = add i32 %39, 1
  store i32 %40, ptr %38, align 8
  store i32 %39, ptr %11, align 4
  %41 = load ptr, ptr %3, align 8
  %42 = getelementptr inbounds nuw %struct.slurm_step_layout, ptr %41, i32 0, i32 9
  %43 = load ptr, ptr %3, align 8
  %44 = getelementptr inbounds nuw %struct.slurm_step_layout, ptr %43, i32 0, i32 5
  %45 = load i32, ptr %44, align 8
  %46 = zext i32 %45 to i64
  %47 = call ptr @slurm_xrecalloc(ptr noundef %42, i64 noundef %46, i64 noundef 2, i1 noundef zeroext true, i1 noundef zeroext false, ptr noundef @.str, i32 noundef 287, ptr noundef @__func__.slurm_step_layout_merge)
  %48 = load ptr, ptr %3, align 8
  %49 = getelementptr inbounds nuw %struct.slurm_step_layout, ptr %48, i32 0, i32 12
  %50 = load ptr, ptr %3, align 8
  %51 = getelementptr inbounds nuw %struct.slurm_step_layout, ptr %50, i32 0, i32 5
  %52 = load i32, ptr %51, align 8
  %53 = zext i32 %52 to i64
  %54 = call ptr @slurm_xrecalloc(ptr noundef %49, i64 noundef %53, i64 noundef 8, i1 noundef zeroext true, i1 noundef zeroext false, ptr noundef @.str, i32 noundef 290, ptr noundef @__func__.slurm_step_layout_merge)
  br label %55

55:                                               ; preds = %33, %27
  %56 = load ptr, ptr %10, align 8
  call void @free(ptr noundef %56) #7
  %57 = load ptr, ptr %3, align 8
  %58 = getelementptr inbounds nuw %struct.slurm_step_layout, ptr %57, i32 0, i32 9
  %59 = load ptr, ptr %58, align 8
  %60 = load i32, ptr %11, align 4
  %61 = sext i32 %60 to i64
  %62 = getelementptr inbounds i16, ptr %59, i64 %61
  %63 = load i16, ptr %62, align 2
  %64 = zext i16 %63 to i32
  store i32 %64, ptr %9, align 4
  %65 = load ptr, ptr %4, align 8
  %66 = getelementptr inbounds nuw %struct.slurm_step_layout, ptr %65, i32 0, i32 9
  %67 = load ptr, ptr %66, align 8
  %68 = load i32, ptr %8, align 4
  %69 = sext i32 %68 to i64
  %70 = getelementptr inbounds i16, ptr %67, i64 %69
  %71 = load i16, ptr %70, align 2
  %72 = zext i16 %71 to i32
  %73 = load ptr, ptr %3, align 8
  %74 = getelementptr inbounds nuw %struct.slurm_step_layout, ptr %73, i32 0, i32 9
  %75 = load ptr, ptr %74, align 8
  %76 = load i32, ptr %11, align 4
  %77 = sext i32 %76 to i64
  %78 = getelementptr inbounds i16, ptr %75, i64 %77
  %79 = load i16, ptr %78, align 2
  %80 = zext i16 %79 to i32
  %81 = add nsw i32 %80, %72
  %82 = trunc i32 %81 to i16
  store i16 %82, ptr %78, align 2
  %83 = load ptr, ptr %3, align 8
  %84 = getelementptr inbounds nuw %struct.slurm_step_layout, ptr %83, i32 0, i32 12
  %85 = load ptr, ptr %84, align 8
  %86 = load i32, ptr %11, align 4
  %87 = sext i32 %86 to i64
  %88 = getelementptr inbounds ptr, ptr %85, i64 %87
  %89 = load ptr, ptr %3, align 8
  %90 = getelementptr inbounds nuw %struct.slurm_step_layout, ptr %89, i32 0, i32 9
  %91 = load ptr, ptr %90, align 8
  %92 = load i32, ptr %11, align 4
  %93 = sext i32 %92 to i64
  %94 = getelementptr inbounds i16, ptr %91, i64 %93
  %95 = load i16, ptr %94, align 2
  %96 = zext i16 %95 to i64
  %97 = call ptr @slurm_xrecalloc(ptr noundef %88, i64 noundef %96, i64 noundef 4, i1 noundef zeroext true, i1 noundef zeroext false, ptr noundef @.str, i32 noundef 300, ptr noundef @__func__.slurm_step_layout_merge)
  call void @llvm.lifetime.start.p0(i64 4, ptr %12) #7
  store i32 0, ptr %12, align 4
  br label %98

98:                                               ; preds = %133, %55
  %99 = load i32, ptr %12, align 4
  %100 = load ptr, ptr %4, align 8
  %101 = getelementptr inbounds nuw %struct.slurm_step_layout, ptr %100, i32 0, i32 9
  %102 = load ptr, ptr %101, align 8
  %103 = load i32, ptr %8, align 4
  %104 = sext i32 %103 to i64
  %105 = getelementptr inbounds i16, ptr %102, i64 %104
  %106 = load i16, ptr %105, align 2
  %107 = zext i16 %106 to i32
  %108 = icmp slt i32 %99, %107
  br i1 %108, label %110, label %109

109:                                              ; preds = %98
  call void @llvm.lifetime.end.p0(i64 4, ptr %12) #7
  br label %136

110:                                              ; preds = %98
  %111 = load ptr, ptr %4, align 8
  %112 = getelementptr inbounds nuw %struct.slurm_step_layout, ptr %111, i32 0, i32 12
  %113 = load ptr, ptr %112, align 8
  %114 = load i32, ptr %8, align 4
  %115 = sext i32 %114 to i64
  %116 = getelementptr inbounds ptr, ptr %113, i64 %115
  %117 = load ptr, ptr %116, align 8
  %118 = load i32, ptr %12, align 4
  %119 = sext i32 %118 to i64
  %120 = getelementptr inbounds i32, ptr %117, i64 %119
  %121 = load i32, ptr %120, align 4
  %122 = load ptr, ptr %3, align 8
  %123 = getelementptr inbounds nuw %struct.slurm_step_layout, ptr %122, i32 0, i32 12
  %124 = load ptr, ptr %123, align 8
  %125 = load i32, ptr %11, align 4
  %126 = sext i32 %125 to i64
  %127 = getelementptr inbounds ptr, ptr %124, i64 %126
  %128 = load ptr, ptr %127, align 8
  %129 = load i32, ptr %9, align 4
  %130 = add nsw i32 %129, 1
  store i32 %130, ptr %9, align 4
  %131 = sext i32 %129 to i64
  %132 = getelementptr inbounds i32, ptr %128, i64 %131
  store i32 %121, ptr %132, align 4
  br label %133

133:                                              ; preds = %110
  %134 = load i32, ptr %12, align 4
  %135 = add nsw i32 %134, 1
  store i32 %135, ptr %12, align 4
  br label %98, !llvm.loop !18

136:                                              ; preds = %109
  %137 = load i32, ptr %8, align 4
  %138 = add nsw i32 %137, 1
  store i32 %138, ptr %8, align 4
  call void @llvm.lifetime.end.p0(i64 4, ptr %11) #7
  br label %23, !llvm.loop !19

139:                                              ; preds = %23
  %140 = load ptr, ptr %7, align 8
  call void @hostlist_iterator_destroy(ptr noundef %140)
  %141 = load ptr, ptr %4, align 8
  %142 = getelementptr inbounds nuw %struct.slurm_step_layout, ptr %141, i32 0, i32 10
  %143 = load i32, ptr %142, align 8
  %144 = load ptr, ptr %3, align 8
  %145 = getelementptr inbounds nuw %struct.slurm_step_layout, ptr %144, i32 0, i32 10
  %146 = load i32, ptr %145, align 8
  %147 = add i32 %146, %143
  store i32 %147, ptr %145, align 8
  %148 = load ptr, ptr %3, align 8
  %149 = getelementptr inbounds nuw %struct.slurm_step_layout, ptr %148, i32 0, i32 6
  call void @slurm_xfree(ptr noundef %149)
  %150 = load ptr, ptr %5, align 8
  %151 = call ptr @hostlist_ranged_string_xmalloc(ptr noundef %150)
  %152 = load ptr, ptr %3, align 8
  %153 = getelementptr inbounds nuw %struct.slurm_step_layout, ptr %152, i32 0, i32 6
  store ptr %151, ptr %153, align 8
  %154 = load ptr, ptr %5, align 8
  call void @hostlist_destroy(ptr noundef %154)
  %155 = load ptr, ptr %6, align 8
  call void @hostlist_destroy(ptr noundef %155)
  call void @llvm.lifetime.end.p0(i64 8, ptr %10) #7
  call void @llvm.lifetime.end.p0(i64 4, ptr %9) #7
  call void @llvm.lifetime.end.p0(i64 4, ptr %8) #7
  call void @llvm.lifetime.end.p0(i64 8, ptr %7) #7
  call void @llvm.lifetime.end.p0(i64 8, ptr %6) #7
  call void @llvm.lifetime.end.p0(i64 8, ptr %5) #7
  ret void
}