; Function Attrs: nounwind uwtable
define dso_local void @slurm_step_layout_merge(ptr noundef %0, ptr noundef readonly captures(none) %1) local_unnamed_addr #0 {
  %3 = getelementptr inbounds nuw i8, ptr %0, i64 48
  %4 = load ptr, ptr %3, align 8
  %5 = tail call ptr @hostlist_create(ptr noundef %4) #7
  %6 = getelementptr inbounds nuw i8, ptr %1, i64 48
  %7 = load ptr, ptr %6, align 8
  %8 = tail call ptr @hostlist_create(ptr noundef %7) #7
  %9 = tail call ptr @hostlist_iterator_create(ptr noundef %8) #7
  %10 = tail call ptr @hostlist_next(ptr noundef %9) #7
  %.not50 = icmp eq ptr %10, null
  br i1 %.not50, label %._crit_edge54, label %.lr.ph53

.lr.ph53:                                         ; preds = %2
  %11 = getelementptr inbounds nuw i8, ptr %0, i64 40
  %12 = getelementptr inbounds nuw i8, ptr %0, i64 64
  %13 = getelementptr inbounds nuw i8, ptr %0, i64 80
  %14 = getelementptr inbounds nuw i8, ptr %1, i64 64
  %15 = getelementptr inbounds nuw i8, ptr %1, i64 80
  br label %16

16:                                               ; preds = %.lr.ph53, %._crit_edge
  %indvars.iv61 = phi i64 [ 0, %.lr.ph53 ], [ %indvars.iv.next62, %._crit_edge ]
  %17 = phi ptr [ %10, %.lr.ph53 ], [ %49, %._crit_edge ]
  %18 = tail call i32 @hostlist_find(ptr noundef %5, ptr noundef nonnull %17) #7
  %19 = icmp eq i32 %18, -1
  br i1 %19, label %20, label %29

20:                                               ; preds = %16
  %21 = tail call i32 @hostlist_push_host(ptr noundef %5, ptr noundef nonnull %17) #7
  %22 = load i32, ptr %11, align 8
  %23 = add i32 %22, 1
  store i32 %23, ptr %11, align 8
  %24 = zext i32 %23 to i64
  %25 = tail call ptr @slurm_xrecalloc(ptr noundef nonnull %12, i64 noundef %24, i64 noundef 2, i1 noundef zeroext true, i1 noundef zeroext false, ptr noundef nonnull @.str, i32 noundef 287, ptr noundef nonnull @__func__.slurm_step_layout_merge) #7
  %26 = load i32, ptr %11, align 8
  %27 = zext i32 %26 to i64
  %28 = tail call ptr @slurm_xrecalloc(ptr noundef nonnull %13, i64 noundef %27, i64 noundef 8, i1 noundef zeroext true, i1 noundef zeroext false, ptr noundef nonnull @.str, i32 noundef 290, ptr noundef nonnull @__func__.slurm_step_layout_merge) #7
  br label %29

29:                                               ; preds = %20, %16
  %.043 = phi i32 [ %22, %20 ], [ %18, %16 ]
  tail call void @free(ptr noundef nonnull %17) #7
  %30 = load ptr, ptr %12, align 8
  %31 = sext i32 %.043 to i64
  %32 = getelementptr inbounds i16, ptr %30, i64 %31
  %33 = load i16, ptr %32, align 2
  %34 = load ptr, ptr %14, align 8
  %35 = getelementptr inbounds nuw i16, ptr %34, i64 %indvars.iv61
  %36 = load i16, ptr %35, align 2
  %37 = add i16 %36, %33
  store i16 %37, ptr %32, align 2
  %38 = load ptr, ptr %13, align 8
  %39 = getelementptr inbounds ptr, ptr %38, i64 %31
  %40 = load ptr, ptr %12, align 8
  %41 = getelementptr inbounds i16, ptr %40, i64 %31
  %42 = load i16, ptr %41, align 2
  %43 = zext i16 %42 to i64
  %44 = tail call ptr @slurm_xrecalloc(ptr noundef %39, i64 noundef %43, i64 noundef 4, i1 noundef zeroext true, i1 noundef zeroext false, ptr noundef nonnull @.str, i32 noundef 300, ptr noundef nonnull @__func__.slurm_step_layout_merge) #7
  %45 = load ptr, ptr %14, align 8
  %46 = getelementptr inbounds nuw i16, ptr %45, i64 %indvars.iv61
  %47 = load i16, ptr %46, align 2
  %.not55 = icmp eq i16 %47, 0
  br i1 %.not55, label %._crit_edge, label %.lr.ph.preheader

.lr.ph.preheader:                                 ; preds = %29
  %48 = zext i16 %33 to i64
  br label %.lr.ph

._crit_edge:                                      ; preds = %.lr.ph, %29
  %indvars.iv.next62 = add nuw nsw i64 %indvars.iv61, 1
  %49 = tail call ptr @hostlist_next(ptr noundef %9) #7
  %.not = icmp eq ptr %49, null
  br i1 %.not, label %._crit_edge54, label %16, !llvm.loop !26

.lr.ph:                                           ; preds = %.lr.ph.preheader, %.lr.ph
  %indvars.iv56 = phi i64 [ %48, %.lr.ph.preheader ], [ %indvars.iv.next57, %.lr.ph ]
  %indvars.iv = phi i64 [ 0, %.lr.ph.preheader ], [ %indvars.iv.next, %.lr.ph ]
  %50 = load ptr, ptr %15, align 8
  %51 = getelementptr inbounds nuw ptr, ptr %50, i64 %indvars.iv61
  %52 = load ptr, ptr %51, align 8
  %53 = getelementptr inbounds nuw i32, ptr %52, i64 %indvars.iv
  %54 = load i32, ptr %53, align 4
  %55 = load ptr, ptr %13, align 8
  %56 = getelementptr inbounds ptr, ptr %55, i64 %31
  %57 = load ptr, ptr %56, align 8
  %indvars.iv.next57 = add nuw nsw i64 %indvars.iv56, 1
  %58 = getelementptr inbounds nuw i32, ptr %57, i64 %indvars.iv56
  store i32 %54, ptr %58, align 4
  %indvars.iv.next = add nuw nsw i64 %indvars.iv, 1
  %59 = load ptr, ptr %14, align 8
  %60 = getelementptr inbounds nuw i16, ptr %59, i64 %indvars.iv61
  %61 = load i16, ptr %60, align 2
  %62 = zext i16 %61 to i64
  %63 = icmp samesign ult i64 %indvars.iv.next, %62
  br i1 %63, label %.lr.ph, label %._crit_edge, !llvm.loop !27

._crit_edge54:                                    ; preds = %._crit_edge, %2
  tail call void @hostlist_iterator_destroy(ptr noundef %9) #7
  %64 = getelementptr inbounds nuw i8, ptr %1, i64 72
  %65 = load i32, ptr %64, align 8
  %66 = getelementptr inbounds nuw i8, ptr %0, i64 72
  %67 = load i32, ptr %66, align 8
  %68 = add i32 %67, %65
  store i32 %68, ptr %66, align 8
  tail call void @slurm_xfree(ptr noundef nonnull %3) #7
  %69 = tail call ptr @hostlist_ranged_string_xmalloc(ptr noundef %5) #7
  store ptr %69, ptr %3, align 8
  tail call void @hostlist_destroy(ptr noundef %5) #7
  tail call void @hostlist_destroy(ptr noundef %8) #7
  ret void
}